; Function Attrs: mustprogress nounwind uwtable
define dso_local void @_ZN4node4quic7Session11Application11BlockStreamEl(ptr nocapture noundef nonnull readonly align 8 dereferenceable(16) %this, i64 noundef %id) unnamed_addr #3 align 2 {
entry:
  %stream = alloca %"class.node::BaseObjectPtrImpl.26", align 8
  %session_.i = getelementptr inbounds i8, ptr %this, i64 8
  %0 = load ptr, ptr %session_.i, align 8
  call void @_ZNK4node4quic7Session10FindStreamEl(ptr nonnull sret(%"class.node::BaseObjectPtrImpl.26") align 8 %stream, ptr noundef nonnull align 8 dereferenceable(2616) %0, i64 noundef %id) #18
  %1 = load ptr, ptr %stream, align 8
  %cmp.i.not = icmp eq ptr %1, null
  br i1 %cmp.i.not, label %_ZN4node17BaseObjectPtrImplINS_4quic6StreamELb0EED2Ev.exit, label %if.end

if.end:                                           ; preds = %entry
  call void @_ZN4node4quic6Stream11EmitBlockedEv(ptr noundef nonnull align 8 dereferenceable(256) %1) #18
  %.pr = load ptr, ptr %stream, align 8
  %cmp.not.i = icmp eq ptr %.pr, null
  br i1 %cmp.not.i, label %_ZN4node17BaseObjectPtrImplINS_4quic6StreamELb0EED2Ev.exit, label %if.then.i

if.then.i:                                        ; preds = %if.end
  call void @_ZN4node10BaseObject17decrease_refcountEv(ptr noundef nonnull align 8 dereferenceable(32) %.pr) #18
  br label %_ZN4node17BaseObjectPtrImplINS_4quic6StreamELb0EED2Ev.exit

_ZN4node17BaseObjectPtrImplINS_4quic6StreamELb0EED2Ev.exit: ; preds = %entry, %if.end, %if.then.i
  ret void
}